target datalayout = "e-m:e-p270:32:32-p271:32:32-p272:64:64-i64:64-i128:128-f80:128-n8:16:32:64-S128"
target triple = "x86_64-pc-linux-gnu"

%struct.evws_connection = type { %struct.anon, ptr, ptr, ptr, ptr, ptr, ptr, ptr, i8 }
%struct.anon = type { ptr, ptr }

; Function Attrs: nounwind uwtable
define internal void @make_ws_frame(ptr noundef %0, i32 noundef %1, ptr noundef %2, i64 noundef %3) #0 {
  %5 = alloca ptr, align 8
  %6 = alloca i32, align 4
  %7 = alloca ptr, align 8
  %8 = alloca i64, align 8
  %9 = alloca i64, align 8
  %10 = alloca [16 x i8], align 16
  %11 = alloca i32, align 4
  %12 = alloca i64, align 8
  store ptr %0, ptr %5, align 8
  store i32 %1, ptr %6, align 4
  store ptr %2, ptr %7, align 8
  store i64 %3, ptr %8, align 8
  call void @llvm.lifetime.start.p0(i64 8, ptr %9) #8
  store i64 0, ptr %9, align 8
  call void @llvm.lifetime.start.p0(i64 16, ptr %10) #8
  call void @llvm.memset.p0.i64(ptr align 16 %10, i8 0, i64 16, i1 false)
  %13 = load i32, ptr %6, align 4
  %14 = trunc i32 %13 to i8
  %15 = zext i8 %14 to i32
  %16 = or i32 %15, 128
  %17 = trunc i32 %16 to i8
  %18 = load i64, ptr %9, align 8
  %19 = add i64 %18, 1
  store i64 %19, ptr %9, align 8
  %20 = getelementptr inbounds nuw [16 x i8], ptr %10, i64 0, i64 %18
  store i8 %17, ptr %20, align 1
  %21 = load i64, ptr %8, align 8
  %22 = icmp ule i64 %21, 125
  br i1 %22, label %23, label %29

23:                                               ; preds = %4
  %24 = load i64, ptr %8, align 8
  %25 = trunc i64 %24 to i8
  %26 = load i64, ptr %9, align 8
  %27 = add i64 %26, 1
  store i64 %27, ptr %9, align 8
  %28 = getelementptr inbounds nuw [16 x i8], ptr %10, i64 0, i64 %26
  store i8 %25, ptr %28, align 1
  br label %72

29:                                               ; preds = %4
  %30 = load i64, ptr %8, align 8
  %31 = icmp ule i64 %30, 65535
  br i1 %31, label %32, label %49

32:                                               ; preds = %29
  %33 = load i64, ptr %9, align 8
  %34 = add i64 %33, 1
  store i64 %34, ptr %9, align 8
  %35 = getelementptr inbounds nuw [16 x i8], ptr %10, i64 0, i64 %33
  store i8 126, ptr %35, align 1
  %36 = load i64, ptr %8, align 8
  %37 = lshr i64 %36, 8
  %38 = and i64 %37, 255
  %39 = trunc i64 %38 to i8
  %40 = load i64, ptr %9, align 8
  %41 = add i64 %40, 1
  store i64 %41, ptr %9, align 8
  %42 = getelementptr inbounds nuw [16 x i8], ptr %10, i64 0, i64 %40
  store i8 %39, ptr %42, align 1
  %43 = load i64, ptr %8, align 8
  %44 = and i64 %43, 255
  %45 = trunc i64 %44 to i8
  %46 = load i64, ptr %9, align 8
  %47 = add i64 %46, 1
  store i64 %47, ptr %9, align 8
  %48 = getelementptr inbounds nuw [16 x i8], ptr %10, i64 0, i64 %46
  store i8 %45, ptr %48, align 1
  br label %71

49:                                               ; preds = %29
  call void @llvm.lifetime.start.p0(i64 4, ptr %11) #8
  call void @llvm.lifetime.start.p0(i64 8, ptr %12) #8
  %50 = load i64, ptr %8, align 8
  store i64 %50, ptr %12, align 8
  %51 = load i64, ptr %9, align 8
  %52 = add i64 %51, 1
  store i64 %52, ptr %9, align 8
  %53 = getelementptr inbounds nuw [16 x i8], ptr %10, i64 0, i64 %51
  store i8 127, ptr %53, align 1
  store i32 56, ptr %11, align 4
  br label %54

54:                                               ; preds = %67, %49
  %55 = load i32, ptr %11, align 4
  %56 = icmp sge i32 %55, 0
  br i1 %56, label %57, label %70

57:                                               ; preds = %54
  %58 = load i64, ptr %12, align 8
  %59 = load i32, ptr %11, align 4
  %60 = zext i32 %59 to i64
  %61 = lshr i64 %58, %60
  %62 = and i64 %61, 255
  %63 = trunc i64 %62 to i8
  %64 = load i64, ptr %9, align 8
  %65 = add i64 %64, 1
  store i64 %65, ptr %9, align 8
  %66 = getelementptr inbounds nuw [16 x i8], ptr %10, i64 0, i64 %64
  store i8 %63, ptr %66, align 1
  br label %67

67:                                               ; preds = %57
  %68 = load i32, ptr %11, align 4
  %69 = sub nsw i32 %68, 8
  store i32 %69, ptr %11, align 4
  br label %54, !llvm.loop !10

70:                                               ; preds = %54
  call void @llvm.lifetime.end.p0(i64 8, ptr %12) #8
  call void @llvm.lifetime.end.p0(i64 4, ptr %11) #8
  br label %71

71:                                               ; preds = %70, %32
  br label %72

72:                                               ; preds = %71, %23
  %73 = load ptr, ptr %5, align 8
  %74 = getelementptr inbounds [16 x i8], ptr %10, i64 0, i64 0
  %75 = load i64, ptr %9, align 8
  %76 = call i32 @evbuffer_add(ptr noundef %73, ptr noundef %74, i64 noundef %75)
  %77 = load ptr, ptr %5, align 8
  %78 = load ptr, ptr %7, align 8
  %79 = load i64, ptr %8, align 8
  %80 = call i32 @evbuffer_add(ptr noundef %77, ptr noundef %78, i64 noundef %79)
  call void @llvm.lifetime.end.p0(i64 16, ptr %10) #8
  call void @llvm.lifetime.end.p0(i64 8, ptr %9) #8
  ret void
}

; Function Attrs: nounwind uwtable
define internal void @evws_send(ptr noundef %0, i32 noundef %1, ptr noundef %2, i64 noundef %3) #0 {
  %5 = alloca ptr, align 8
  %6 = alloca i32, align 4
  %7 = alloca ptr, align 8
  %8 = alloca i64, align 8
  %9 = alloca ptr, align 8
  store ptr %0, ptr %5, align 8
  store i32 %1, ptr %6, align 4
  store ptr %2, ptr %7, align 8
  store i64 %3, ptr %8, align 8
  call void @llvm.lifetime.start.p0(i64 8, ptr %9) #8
  %10 = load ptr, ptr %5, align 8
  %11 = getelementptr inbounds nuw %struct.evws_connection, ptr %10, i32 0, i32 1
  %12 = load ptr, ptr %11, align 8
  call void @bufferevent_lock(ptr noundef %12)
  %13 = load ptr, ptr %5, align 8
  %14 = getelementptr inbounds nuw %struct.evws_connection, ptr %13, i32 0, i32 1
  %15 = load ptr, ptr %14, align 8
  %16 = call ptr @bufferevent_get_output(ptr noundef %15)
  store ptr %16, ptr %9, align 8
  %17 = load ptr, ptr %9, align 8
  %18 = load i32, ptr %6, align 4
  %19 = load ptr, ptr %7, align 8
  %20 = load i64, ptr %8, align 8
  call void @make_ws_frame(ptr noundef %17, i32 noundef %18, ptr noundef %19, i64 noundef %20)
  %21 = load ptr, ptr %5, align 8
  %22 = getelementptr inbounds nuw %struct.evws_connection, ptr %21, i32 0, i32 1
  %23 = load ptr, ptr %22, align 8
  call void @bufferevent_unlock(ptr noundef %23)
  call void @llvm.lifetime.end.p0(i64 8, ptr %9) #8
  ret void
}