; Function Attrs: nounwind uwtable
define internal fastcc void @evws_send(ptr noundef readonly captures(none) %0, i32 noundef range(i32 1, 3) %1, ptr noundef %2, i64 noundef %3) unnamed_addr #0 {
  %5 = alloca [16 x i8], align 16
  %6 = getelementptr inbounds nuw i8, ptr %0, i64 16
  %7 = load ptr, ptr %6, align 8
  tail call void @bufferevent_lock(ptr noundef %7) #9
  %8 = load ptr, ptr %6, align 8
  %9 = tail call ptr @bufferevent_get_output(ptr noundef %8) #9
  call void @llvm.lifetime.start.p0(i64 16, ptr nonnull %5) #9
  call void @llvm.memset.p0.i64(ptr noundef nonnull align 16 dereferenceable(16) %5, i8 0, i64 16, i1 false)
  %10 = trunc nuw nsw i32 %1 to i8
  %11 = or disjoint i8 %10, -128
  store i8 %11, ptr %5, align 16
  %12 = icmp ult i64 %3, 126
  %.sink29.i.sroa.gep = getelementptr inbounds nuw i8, ptr %5, i64 3
  %.sink29.i.sroa.gep6 = getelementptr inbounds nuw i8, ptr %5, i64 1
  br i1 %12, label %.loopexit.sink.split.i, label %13

13:                                               ; preds = %4
  %14 = icmp ult i64 %3, 65536
  br i1 %14, label %15, label %19

15:                                               ; preds = %13
  store i8 126, ptr %.sink29.i.sroa.gep6, align 1
  %16 = lshr i64 %3, 8
  %17 = trunc nuw i64 %16 to i8
  %18 = getelementptr inbounds nuw i8, ptr %5, i64 2
  store i8 %17, ptr %18, align 2
  br label %.loopexit.sink.split.i

19:                                               ; preds = %13
  store i8 127, ptr %.sink29.i.sroa.gep6, align 1
  br label %20

20:                                               ; preds = %20, %19
  %indvars.iv.i = phi i64 [ 56, %19 ], [ %indvars.iv.next.i, %20 ]
  %.126.i = phi i64 [ 2, %19 ], [ %23, %20 ]
  %21 = lshr i64 %3, %indvars.iv.i
  %22 = trunc i64 %21 to i8
  %23 = add nuw nsw i64 %.126.i, 1
  %24 = getelementptr inbounds nuw [16 x i8], ptr %5, i64 0, i64 %.126.i
  store i8 %22, ptr %24, align 1
  %indvars.iv.next.i = add nsw i64 %indvars.iv.i, -8
  %exitcond.not.i = icmp eq i64 %23, 10
  br i1 %exitcond.not.i, label %make_ws_frame.exit, label %20, !llvm.loop !10

.loopexit.sink.split.i:                           ; preds = %15, %4
  %.sink29.i.sroa.phi = phi ptr [ %.sink29.i.sroa.gep, %15 ], [ %.sink29.i.sroa.gep6, %4 ]
  %.0.ph.i = phi i64 [ 4, %15 ], [ 2, %4 ]
  %25 = trunc i64 %3 to i8
  store i8 %25, ptr %.sink29.i.sroa.phi, align 1
  br label %make_ws_frame.exit

make_ws_frame.exit:                               ; preds = %20, %.loopexit.sink.split.i
  %.0.i = phi i64 [ %.0.ph.i, %.loopexit.sink.split.i ], [ 10, %20 ]
  %26 = call i32 @evbuffer_add(ptr noundef %9, ptr noundef nonnull %5, i64 noundef %.0.i) #9
  %27 = call i32 @evbuffer_add(ptr noundef %9, ptr noundef %2, i64 noundef %3) #9
  call void @llvm.lifetime.end.p0(i64 16, ptr nonnull %5) #9
  %28 = load ptr, ptr %6, align 8
  call void @bufferevent_unlock(ptr noundef %28) #9
  ret void
}